target datalayout = "e-m:e-p270:32:32-p271:32:32-p272:64:64-i64:64-i128:128-f80:128-n8:16:32:64-S128"
target triple = "x86_64-pc-linux-gnu"

%struct.OnigEncodingTypeST = type { ptr, ptr, i32, i32, ptr, ptr, ptr, ptr, ptr, ptr, ptr, ptr, ptr, ptr, ptr, ptr, ptr, i32, i32 }

; Function Attrs: nounwind sspstrong uwtable
define internal i32 @string_cmp_ic(ptr noundef %0, i32 noundef %1, ptr noundef %2, ptr noundef %3, i64 noundef %4, ptr noundef %5) #0 {
  %7 = alloca i32, align 4
  %8 = alloca ptr, align 8
  %9 = alloca i32, align 4
  %10 = alloca ptr, align 8
  %11 = alloca ptr, align 8
  %12 = alloca i64, align 8
  %13 = alloca ptr, align 8
  %14 = alloca [18 x i8], align 16
  %15 = alloca [18 x i8], align 16
  %16 = alloca ptr, align 8
  %17 = alloca ptr, align 8
  %18 = alloca ptr, align 8
  %19 = alloca ptr, align 8
  %20 = alloca i32, align 4
  %21 = alloca i32, align 4
  %22 = alloca i32, align 4
  store ptr %0, ptr %8, align 8, !tbaa !54
  store i32 %1, ptr %9, align 4, !tbaa !26
  store ptr %2, ptr %10, align 8, !tbaa !22
  store ptr %3, ptr %11, align 8, !tbaa !125
  store i64 %4, ptr %12, align 8, !tbaa !12
  store ptr %5, ptr %13, align 8, !tbaa !22
  call void @llvm.lifetime.start.p0(i64 18, ptr %14) #12
  call void @llvm.lifetime.start.p0(i64 18, ptr %15) #12
  call void @llvm.lifetime.start.p0(i64 8, ptr %16) #12
  call void @llvm.lifetime.start.p0(i64 8, ptr %17) #12
  call void @llvm.lifetime.start.p0(i64 8, ptr %18) #12
  call void @llvm.lifetime.start.p0(i64 8, ptr %19) #12
  call void @llvm.lifetime.start.p0(i64 4, ptr %20) #12
  call void @llvm.lifetime.start.p0(i64 4, ptr %21) #12
  %23 = load ptr, ptr %11, align 8, !tbaa !125
  %24 = load ptr, ptr %23, align 8, !tbaa !22
  store ptr %24, ptr %19, align 8, !tbaa !22
  %25 = load ptr, ptr %10, align 8, !tbaa !22
  %26 = load i64, ptr %12, align 8, !tbaa !12
  %27 = getelementptr i8, ptr %25, i64 %26
  store ptr %27, ptr %18, align 8, !tbaa !22
  br label %28

28:                                               ; preds = %74, %6
  %29 = load ptr, ptr %10, align 8, !tbaa !22
  %30 = load ptr, ptr %18, align 8, !tbaa !22
  %31 = icmp ult ptr %29, %30
  br i1 %31, label %32, label %75

32:                                               ; preds = %28
  %33 = load ptr, ptr %8, align 8, !tbaa !54
  %34 = getelementptr inbounds nuw %struct.OnigEncodingTypeST, ptr %33, i32 0, i32 8
  %35 = load ptr, ptr %34, align 8, !tbaa !70
  %36 = load i32, ptr %9, align 4, !tbaa !26
  %37 = load ptr, ptr %13, align 8, !tbaa !22
  %38 = getelementptr inbounds [18 x i8], ptr %14, i64 0, i64 0
  %39 = load ptr, ptr %8, align 8, !tbaa !54
  %40 = call i32 %35(i32 noundef %36, ptr noundef %10, ptr noundef %37, ptr noundef %38, ptr noundef %39)
  store i32 %40, ptr %20, align 4, !tbaa !26
  %41 = load ptr, ptr %8, align 8, !tbaa !54
  %42 = getelementptr inbounds nuw %struct.OnigEncodingTypeST, ptr %41, i32 0, i32 8
  %43 = load ptr, ptr %42, align 8, !tbaa !70
  %44 = load i32, ptr %9, align 4, !tbaa !26
  %45 = load ptr, ptr %13, align 8, !tbaa !22
  %46 = getelementptr inbounds [18 x i8], ptr %15, i64 0, i64 0
  %47 = load ptr, ptr %8, align 8, !tbaa !54
  %48 = call i32 %43(i32 noundef %44, ptr noundef %19, ptr noundef %45, ptr noundef %46, ptr noundef %47)
  store i32 %48, ptr %21, align 4, !tbaa !26
  %49 = load i32, ptr %20, align 4, !tbaa !26
  %50 = load i32, ptr %21, align 4, !tbaa !26
  %51 = icmp ne i32 %49, %50
  br i1 %51, label %52, label %53

52:                                               ; preds = %32
  store i32 0, ptr %7, align 4
  store i32 1, ptr %22, align 4
  br label %78

53:                                               ; preds = %32
  %54 = getelementptr inbounds [18 x i8], ptr %14, i64 0, i64 0
  store ptr %54, ptr %16, align 8, !tbaa !22
  %55 = getelementptr inbounds [18 x i8], ptr %15, i64 0, i64 0
  store ptr %55, ptr %17, align 8, !tbaa !22
  br label %56

56:                                               ; preds = %69, %53
  %57 = load i32, ptr %20, align 4, !tbaa !26
  %58 = add i32 %57, -1
  store i32 %58, ptr %20, align 4, !tbaa !26
  %59 = icmp sgt i32 %57, 0
  br i1 %59, label %60, label %74

60:                                               ; preds = %56
  %61 = load ptr, ptr %16, align 8, !tbaa !22
  %62 = load i8, ptr %61, align 1, !tbaa !65
  %63 = zext i8 %62 to i32
  %64 = load ptr, ptr %17, align 8, !tbaa !22
  %65 = load i8, ptr %64, align 1, !tbaa !65
  %66 = zext i8 %65 to i32
  %67 = icmp ne i32 %63, %66
  br i1 %67, label %68, label %69

68:                                               ; preds = %60
  store i32 0, ptr %7, align 4
  store i32 1, ptr %22, align 4
  br label %78

69:                                               ; preds = %60
  %70 = load ptr, ptr %16, align 8, !tbaa !22
  %71 = getelementptr i8, ptr %70, i32 1
  store ptr %71, ptr %16, align 8, !tbaa !22
  %72 = load ptr, ptr %17, align 8, !tbaa !22
  %73 = getelementptr i8, ptr %72, i32 1
  store ptr %73, ptr %17, align 8, !tbaa !22
  br label %56, !llvm.loop !143

74:                                               ; preds = %56
  br label %28, !llvm.loop !144

75:                                               ; preds = %28
  %76 = load ptr, ptr %19, align 8, !tbaa !22
  %77 = load ptr, ptr %11, align 8, !tbaa !125
  store ptr %76, ptr %77, align 8, !tbaa !22
  store i32 1, ptr %7, align 4
  store i32 1, ptr %22, align 4
  br label %78

78:                                               ; preds = %75, %68, %52
  call void @llvm.lifetime.end.p0(i64 4, ptr %21) #12
  call void @llvm.lifetime.end.p0(i64 4, ptr %20) #12
  call void @llvm.lifetime.end.p0(i64 8, ptr %19) #12
  call void @llvm.lifetime.end.p0(i64 8, ptr %18) #12
  call void @llvm.lifetime.end.p0(i64 8, ptr %17) #12
  call void @llvm.lifetime.end.p0(i64 8, ptr %16) #12
  call void @llvm.lifetime.end.p0(i64 18, ptr %15) #12
  call void @llvm.lifetime.end.p0(i64 18, ptr %14) #12
  %79 = load i32, ptr %7, align 4
  ret i32 %79
}