; Function Attrs: nounwind sspstrong uwtable
define internal fastcc range(i32 0, 2) i32 @string_cmp_ic(ptr noundef %0, i32 noundef %1, ptr noundef %2, ptr noundef nonnull captures(none) %3, i64 noundef %4, ptr noundef %5) unnamed_addr #0 {
  %7 = alloca ptr, align 8
  %8 = alloca [18 x i8], align 16
  %9 = alloca [18 x i8], align 16
  %10 = alloca ptr, align 8
  store ptr %2, ptr %7, align 8, !tbaa !18
  call void @llvm.lifetime.start.p0(i64 18, ptr nonnull %8) #21
  call void @llvm.lifetime.start.p0(i64 18, ptr nonnull %9) #21
  call void @llvm.lifetime.start.p0(i64 8, ptr nonnull %10) #21
  %11 = load ptr, ptr %3, align 8, !tbaa !18
  store ptr %11, ptr %10, align 8, !tbaa !18
  %12 = getelementptr i8, ptr %2, i64 %4
  %13 = icmp ult ptr %2, %12
  br i1 %13, label %.lr.ph28, label %._crit_edge

.lr.ph28:                                         ; preds = %6
  %14 = getelementptr inbounds nuw i8, ptr %0, i64 56
  %invariant.gep = getelementptr i8, ptr %8, i64 -1
  br label %17

.loopexit:                                        ; preds = %26, %.preheader
  %15 = load ptr, ptr %7, align 8, !tbaa !18
  %16 = icmp ult ptr %15, %12
  br i1 %16, label %17, label %._crit_edge.loopexit, !llvm.loop !92

17:                                               ; preds = %.lr.ph28, %.loopexit
  %18 = load ptr, ptr %14, align 8, !tbaa !62
  %19 = call i32 %18(i32 noundef %1, ptr noundef nonnull %7, ptr noundef %5, ptr noundef nonnull %8, ptr noundef %0) #21
  %20 = load ptr, ptr %14, align 8, !tbaa !62
  %21 = call i32 %20(i32 noundef %1, ptr noundef nonnull %10, ptr noundef %5, ptr noundef nonnull %9, ptr noundef %0) #21
  %.not = icmp eq i32 %19, %21
  br i1 %.not, label %.preheader, label %.loopexit24

.preheader:                                       ; preds = %17
  %22 = icmp sgt i32 %19, 0
  br i1 %22, label %.lr.ph.preheader, label %.loopexit

.lr.ph.preheader:                                 ; preds = %.preheader
  %23 = zext nneg i32 %19 to i64
  %gep = getelementptr i8, ptr %invariant.gep, i64 %23
  br label %.lr.ph

.lr.ph:                                           ; preds = %.lr.ph.preheader, %26
  %.02027 = phi ptr [ %27, %26 ], [ %8, %.lr.ph.preheader ]
  %.02126 = phi ptr [ %28, %26 ], [ %9, %.lr.ph.preheader ]
  %24 = load i8, ptr %.02027, align 1, !tbaa !57
  %25 = load i8, ptr %.02126, align 1, !tbaa !57
  %.not23 = icmp eq i8 %24, %25
  br i1 %.not23, label %26, label %.loopexit24

26:                                               ; preds = %.lr.ph
  %27 = getelementptr i8, ptr %.02027, i64 1
  %28 = getelementptr i8, ptr %.02126, i64 1
  %exitcond.not = icmp eq ptr %.02027, %gep
  br i1 %exitcond.not, label %.loopexit, label %.lr.ph, !llvm.loop !93

._crit_edge.loopexit:                             ; preds = %.loopexit
  %.pre = load ptr, ptr %10, align 8, !tbaa !18
  br label %._crit_edge

._crit_edge:                                      ; preds = %._crit_edge.loopexit, %6
  %29 = phi ptr [ %.pre, %._crit_edge.loopexit ], [ %11, %6 ]
  store ptr %29, ptr %3, align 8, !tbaa !18
  br label %.loopexit24

.loopexit24:                                      ; preds = %17, %.lr.ph, %._crit_edge
  %.0 = phi i32 [ 1, %._crit_edge ], [ 0, %.lr.ph ], [ 0, %17 ]
  call void @llvm.lifetime.end.p0(i64 8, ptr nonnull %10) #21
  call void @llvm.lifetime.end.p0(i64 18, ptr nonnull %9) #21
  call void @llvm.lifetime.end.p0(i64 18, ptr nonnull %8) #21
  ret i32 %.0
}